target datalayout = "e-m:e-p270:32:32-p271:32:32-p272:64:64-i64:64-i128:128-f80:128-n8:16:32:64-S128"
target triple = "x86_64-pc-linux-gnu"

%"class.gmx::ImdSession::Impl" = type { i8, ptr, i32, i32, ptr, ptr, i32, ptr, ptr, ptr, ptr, ptr, i32, i32, i32, i32, ptr, ptr, i32, i8, i8, i8, i8, i8, ptr, i32, ptr, ptr, i32, ptr, ptr, ptr, ptr, ptr, %struct.t_block, i32, ptr, ptr, ptr, ptr, ptr, ptr }
%struct.t_block = type { i32, ptr, i32 }

; Function Attrs: inlinehint mustprogress nounwind uwtable
define internal void @_ZL9copy_rvecPKfPf(ptr noundef %0, ptr noundef %1) #6 {
  %3 = alloca ptr, align 8
  %4 = alloca ptr, align 8
  store ptr %0, ptr %3, align 8, !tbaa !324
  store ptr %1, ptr %4, align 8, !tbaa !324
  %5 = load ptr, ptr %3, align 8, !tbaa !324
  %6 = getelementptr inbounds float, ptr %5, i64 0
  %7 = load float, ptr %6, align 4, !tbaa !329
  %8 = load ptr, ptr %4, align 8, !tbaa !324
  %9 = getelementptr inbounds float, ptr %8, i64 0
  store float %7, ptr %9, align 4, !tbaa !329
  %10 = load ptr, ptr %3, align 8, !tbaa !324
  %11 = getelementptr inbounds float, ptr %10, i64 1
  %12 = load float, ptr %11, align 4, !tbaa !329
  %13 = load ptr, ptr %4, align 8, !tbaa !324
  %14 = getelementptr inbounds float, ptr %13, i64 1
  store float %12, ptr %14, align 4, !tbaa !329
  %15 = load ptr, ptr %3, align 8, !tbaa !324
  %16 = getelementptr inbounds float, ptr %15, i64 2
  %17 = load float, ptr %16, align 4, !tbaa !329
  %18 = load ptr, ptr %4, align 8, !tbaa !324
  %19 = getelementptr inbounds float, ptr %18, i64 2
  store float %17, ptr %19, align 4, !tbaa !329
  ret void
}

; Function Attrs: mustprogress uwtable
define void @_ZN3gmx10ImdSession4Impl13keepOldValuesEv(ptr noundef nonnull align 8 dereferenceable(296) %0) #0 align 2 {
  %2 = alloca ptr, align 8
  %3 = alloca i32, align 4
  store ptr %0, ptr %2, align 8, !tbaa !266
  %4 = load ptr, ptr %2, align 8
  %5 = getelementptr inbounds nuw %"class.gmx::ImdSession::Impl", ptr %4, i32 0, i32 28
  %6 = load i32, ptr %5, align 8, !tbaa !328
  %7 = getelementptr inbounds nuw %"class.gmx::ImdSession::Impl", ptr %4, i32 0, i32 35
  store i32 %6, ptr %7, align 8, !tbaa !333
  call void @llvm.lifetime.start.p0(i64 4, ptr %3) #17
  store i32 0, ptr %3, align 4, !tbaa !70
  br label %8

8:                                                ; preds = %38, %1
  %9 = load i32, ptr %3, align 4, !tbaa !70
  %10 = getelementptr inbounds nuw %"class.gmx::ImdSession::Impl", ptr %4, i32 0, i32 28
  %11 = load i32, ptr %10, align 8, !tbaa !328
  %12 = icmp slt i32 %9, %11
  br i1 %12, label %14, label %13

13:                                               ; preds = %8
  call void @llvm.lifetime.end.p0(i64 4, ptr %3) #17
  br label %41

14:                                               ; preds = %8
  %15 = getelementptr inbounds nuw %"class.gmx::ImdSession::Impl", ptr %4, i32 0, i32 29
  %16 = load ptr, ptr %15, align 8, !tbaa !330
  %17 = load i32, ptr %3, align 4, !tbaa !70
  %18 = sext i32 %17 to i64
  %19 = getelementptr inbounds i32, ptr %16, i64 %18
  %20 = load i32, ptr %19, align 4, !tbaa !70
  %21 = getelementptr inbounds nuw %"class.gmx::ImdSession::Impl", ptr %4, i32 0, i32 36
  %22 = load ptr, ptr %21, align 8, !tbaa !334
  %23 = load i32, ptr %3, align 4, !tbaa !70
  %24 = sext i32 %23 to i64
  %25 = getelementptr inbounds i32, ptr %22, i64 %24
  store i32 %20, ptr %25, align 4, !tbaa !70
  %26 = getelementptr inbounds nuw %"class.gmx::ImdSession::Impl", ptr %4, i32 0, i32 30
  %27 = load ptr, ptr %26, align 8, !tbaa !331
  %28 = load i32, ptr %3, align 4, !tbaa !70
  %29 = sext i32 %28 to i64
  %30 = getelementptr inbounds [3 x float], ptr %27, i64 %29
  %31 = getelementptr inbounds [3 x float], ptr %30, i64 0, i64 0
  %32 = getelementptr inbounds nuw %"class.gmx::ImdSession::Impl", ptr %4, i32 0, i32 37
  %33 = load ptr, ptr %32, align 8, !tbaa !336
  %34 = load i32, ptr %3, align 4, !tbaa !70
  %35 = sext i32 %34 to i64
  %36 = getelementptr inbounds [3 x float], ptr %33, i64 %35
  %37 = getelementptr inbounds [3 x float], ptr %36, i64 0, i64 0
  call void @_ZL9copy_rvecPKfPf(ptr noundef %31, ptr noundef %37)
  br label %38

38:                                               ; preds = %14
  %39 = load i32, ptr %3, align 4, !tbaa !70
  %40 = add nsw i32 %39, 1
  store i32 %40, ptr %3, align 4, !tbaa !70
  br label %8, !llvm.loop !339

41:                                               ; preds = %13
  ret void
}