; Function Attrs: mustprogress nofree norecurse nosync nounwind memory(readwrite, inaccessiblemem: none) uwtable
define void @_ZN3gmx10ImdSession4Impl13keepOldValuesEv(ptr noundef nonnull align 8 captures(none) dereferenceable(296) initializes((240, 244)) %0) local_unnamed_addr #16 align 2 {
  %2 = getelementptr inbounds nuw i8, ptr %0, i64 168
  %3 = load i32, ptr %2, align 8, !tbaa !171
  %4 = getelementptr inbounds nuw i8, ptr %0, i64 240
  store i32 %3, ptr %4, align 8, !tbaa !177
  %5 = icmp sgt i32 %3, 0
  br i1 %5, label %.lr.ph, label %._crit_edge

.lr.ph:                                           ; preds = %1
  %6 = getelementptr inbounds nuw i8, ptr %0, i64 176
  %7 = load ptr, ptr %6, align 8, !tbaa !172
  %8 = getelementptr inbounds nuw i8, ptr %0, i64 248
  %9 = load ptr, ptr %8, align 8, !tbaa !178
  %10 = getelementptr inbounds nuw i8, ptr %0, i64 184
  %11 = load ptr, ptr %10, align 8, !tbaa !174
  %12 = getelementptr inbounds nuw i8, ptr %0, i64 256
  %13 = load ptr, ptr %12, align 8, !tbaa !180
  br label %14

._crit_edge:                                      ; preds = %14, %1
  ret void

14:                                               ; preds = %.lr.ph, %14
  %indvars.iv = phi i64 [ 0, %.lr.ph ], [ %indvars.iv.next, %14 ]
  %15 = getelementptr inbounds nuw i32, ptr %7, i64 %indvars.iv
  %16 = load i32, ptr %15, align 4, !tbaa !161
  %17 = getelementptr inbounds nuw i32, ptr %9, i64 %indvars.iv
  store i32 %16, ptr %17, align 4, !tbaa !161
  %18 = getelementptr inbounds nuw [3 x float], ptr %11, i64 %indvars.iv
  %19 = getelementptr inbounds nuw [3 x float], ptr %13, i64 %indvars.iv
  %20 = load float, ptr %18, align 4, !tbaa !175
  store float %20, ptr %19, align 4, !tbaa !175
  %21 = getelementptr inbounds nuw i8, ptr %18, i64 4
  %22 = load float, ptr %21, align 4, !tbaa !175
  %23 = getelementptr inbounds nuw i8, ptr %19, i64 4
  store float %22, ptr %23, align 4, !tbaa !175
  %24 = getelementptr inbounds nuw i8, ptr %18, i64 8
  %25 = load float, ptr %24, align 4, !tbaa !175
  %26 = getelementptr inbounds nuw i8, ptr %19, i64 8
  store float %25, ptr %26, align 4, !tbaa !175
  %indvars.iv.next = add nuw nsw i64 %indvars.iv, 1
  %27 = load i32, ptr %2, align 8, !tbaa !171
  %28 = sext i32 %27 to i64
  %29 = icmp slt i64 %indvars.iv.next, %28
  br i1 %29, label %14, label %._crit_edge, !llvm.loop !183
}